(lp1
ccelery.canvas
subtask
p2
((dp3
S'task'
p4
S'proj.tasks.add'
p5
sS'subtask_type'
p6
NsS'kwargs'
p7
(dp8
sS'args'
p9
(I35
I95
tp10
sS'options'
p11
(dp12
sS'immutable'
p13
I00
stRp14
ag2
((dp15
g4
g5
sg6
Nsg7
(dp16
sg9
(I58
I36
tp17
sg11
(dp18
sg13
I00
stRp19
ag2
((dp20
g4
g5
sg6
Nsg7
(dp21
sg9
(I82
I92
tp22
sg11
(dp23
sg13
I00
stRp24
ag2
((dp25
g4
g5
sg6
Nsg7
(dp26
sg9
(I29
I92
tp27
sg11
(dp28
sg13
I00
stRp29
ag2
((dp30
g4
g5
sg6
Nsg7
(dp31
sg9
(I67
I6
tp32
sg11
(dp33
sg13
I00
stRp34
ag2
((dp35
g4
g5
sg6
Nsg7
(dp36
sg9
(I52
I87
tp37
sg11
(dp38
sg13
I00
stRp39
ag2
((dp40
g4
g5
sg6
Nsg7
(dp41
sg9
(I57
I32
tp42
sg11
(dp43
sg13
I00
stRp44
ag2
((dp45
g4
g5
sg6
Nsg7
(dp46
sg9
(I74
I22
tp47
sg11
(dp48
sg13
I00
stRp49
ag2
((dp50
g4
g5
sg6
Nsg7
(dp51
sg9
(I85
I82
tp52
sg11
(dp53
sg13
I00
stRp54
ag2
((dp55
g4
g5
sg6
Nsg7
(dp56
sg9
(I54
I18
tp57
sg11
(dp58
sg13
I00
stRp59
ag2
((dp60
g4
g5
sg6
Nsg7
(dp61
sg9
(I90
I90
tp62
sg11
(dp63
sg13
I00
stRp64
ag2
((dp65
g4
g5
sg6
Nsg7
(dp66
sg9
(I70
I10
tp67
sg11
(dp68
sg13
I00
stRp69
ag2
((dp70
g4
g5
sg6
Nsg7
(dp71
sg9
(I16
I86
tp72
sg11
(dp73
sg13
I00
stRp74
ag2
((dp75
g4
g5
sg6
Nsg7
(dp76
sg9
(I85
I7
tp77
sg11
(dp78
sg13
I00
stRp79
ag2
((dp80
g4
g5
sg6
Nsg7
(dp81
sg9
(I26
I55
tp82
sg11
(dp83
sg13
I00
stRp84
ag2
((dp85
g4
g5
sg6
Nsg7
(dp86
sg9
(I86
I44
tp87
sg11
(dp88
sg13
I00
stRp89
ag2
((dp90
g4
g5
sg6
Nsg7
(dp91
sg9
(I32
I49
tp92
sg11
(dp93
sg13
I00
stRp94
ag2
((dp95
g4
g5
sg6
Nsg7
(dp96
sg9
(I80
I67
tp97
sg11
(dp98
sg13
I00
stRp99
ag2
((dp100
g4
g5
sg6
Nsg7
(dp101
sg9
(I66
I36
tp102
sg11
(dp103
sg13
I00
stRp104
ag2
((dp105
g4
g5
sg6
Nsg7
(dp106
sg9
(I100
I19
tp107
sg11
(dp108
sg13
I00
stRp109
ag2
((dp110
g4
g5
sg6
Nsg7
(dp111
sg9
(I68
I58
tp112
sg11
(dp113
sg13
I00
stRp114
ag2
((dp115
g4
g5
sg6
Nsg7
(dp116
sg9
(I35
I28
tp117
sg11
(dp118
sg13
I00
stRp119
ag2
((dp120
g4
g5
sg6
Nsg7
(dp121
sg9
(I24
I28
tp122
sg11
(dp123
sg13
I00
stRp124
ag2
((dp125
g4
g5
sg6
Nsg7
(dp126
sg9
(I37
I72
tp127
sg11
(dp128
sg13
I00
stRp129
ag2
((dp130
g4
g5
sg6
Nsg7
(dp131
sg9
(I54
I56
tp132
sg11
(dp133
sg13
I00
stRp134
ag2
((dp135
g4
g5
sg6
Nsg7
(dp136
sg9
(I56
I22
tp137
sg11
(dp138
sg13
I00
stRp139
ag2
((dp140
g4
g5
sg6
Nsg7
(dp141
sg9
(I19
I10
tp142
sg11
(dp143
sg13
I00
stRp144
ag2
((dp145
g4
g5
sg6
Nsg7
(dp146
sg9
(I22
I57
tp147
sg11
(dp148
sg13
I00
stRp149
ag2
((dp150
g4
g5
sg6
Nsg7
(dp151
sg9
(I18
I8
tp152
sg11
(dp153
sg13
I00
stRp154
ag2
((dp155
g4
g5
sg6
Nsg7
(dp156
sg9
(I42
I28
tp157
sg11
(dp158
sg13
I00
stRp159
ag2
((dp160
g4
g5
sg6
Nsg7
(dp161
sg9
(I30
I37
tp162
sg11
(dp163
sg13
I00
stRp164
ag2
((dp165
g4
g5
sg6
Nsg7
(dp166
sg9
(I17
I37
tp167
sg11
(dp168
sg13
I00
stRp169
ag2
((dp170
g4
g5
sg6
Nsg7
(dp171
sg9
(I56
I40
tp172
sg11
(dp173
sg13
I00
stRp174
ag2
((dp175
g4
g5
sg6
Nsg7
(dp176
sg9
(I92
I69
tp177
sg11
(dp178
sg13
I00
stRp179
ag2
((dp180
g4
g5
sg6
Nsg7
(dp181
sg9
(I59
I8
tp182
sg11
(dp183
sg13
I00
stRp184
ag2
((dp185
g4
g5
sg6
Nsg7
(dp186
sg9
(I20
I63
tp187
sg11
(dp188
sg13
I00
stRp189
ag2
((dp190
g4
g5
sg6
Nsg7
(dp191
sg9
(I90
I10
tp192
sg11
(dp193
sg13
I00
stRp194
ag2
((dp195
g4
g5
sg6
Nsg7
(dp196
sg9
(I65
I73
tp197
sg11
(dp198
sg13
I00
stRp199
ag2
((dp200
g4
g5
sg6
Nsg7
(dp201
sg9
(I40
I63
tp202
sg11
(dp203
sg13
I00
stRp204
ag2
((dp205
g4
g5
sg6
Nsg7
(dp206
sg9
(I75
I97
tp207
sg11
(dp208
sg13
I00
stRp209
ag2
((dp210
g4
g5
sg6
Nsg7
(dp211
sg9
(I36
I83
tp212
sg11
(dp213
sg13
I00
stRp214
ag2
((dp215
g4
g5
sg6
Nsg7
(dp216
sg9
(I88
I72
tp217
sg11
(dp218
sg13
I00
stRp219
ag2
((dp220
g4
g5
sg6
Nsg7
(dp221
sg9
(I8
I67
tp222
sg11
(dp223
sg13
I00
stRp224
ag2
((dp225
g4
g5
sg6
Nsg7
(dp226
sg9
(I36
I88
tp227
sg11
(dp228
sg13
I00
stRp229
ag2
((dp230
g4
g5
sg6
Nsg7
(dp231
sg9
(I82
I9
tp232
sg11
(dp233
sg13
I00
stRp234
ag2
((dp235
g4
g5
sg6
Nsg7
(dp236
sg9
(I58
I24
tp237
sg11
(dp238
sg13
I00
stRp239
ag2
((dp240
g4
g5
sg6
Nsg7
(dp241
sg9
(I85
I78
tp242
sg11
(dp243
sg13
I00
stRp244
ag2
((dp245
g4
g5
sg6
Nsg7
(dp246
sg9
(I15
I12
tp247
sg11
(dp248
sg13
I00
stRp249
ag2
((dp250
g4
g5
sg6
Nsg7
(dp251
sg9
(I26
I20
tp252
sg11
(dp253
sg13
I00
stRp254
ag2
((dp255
g4
g5
sg6
Nsg7
(dp256
sg9
(I10
I53
tp257
sg11
(dp258
sg13
I00
stRp259
ag2
((dp260
g4
g5
sg6
Nsg7
(dp261
sg9
(I70
I32
tp262
sg11
(dp263
sg13
I00
stRp264
ag2
((dp265
g4
g5
sg6
Nsg7
(dp266
sg9
(I25
I58
tp267
sg11
(dp268
sg13
I00
stRp269
ag2
((dp270
g4
g5
sg6
Nsg7
(dp271
sg9
(I45
I93
tp272
sg11
(dp273
sg13
I00
stRp274
ag2
((dp275
g4
g5
sg6
Nsg7
(dp276
sg9
(I31
I59
tp277
sg11
(dp278
sg13
I00
stRp279
ag2
((dp280
g4
g5
sg6
Nsg7
(dp281
sg9
(I35
I25
tp282
sg11
(dp283
sg13
I00
stRp284
ag2
((dp285
g4
g5
sg6
Nsg7
(dp286
sg9
(I17
I31
tp287
sg11
(dp288
sg13
I00
stRp289
ag2
((dp290
g4
g5
sg6
Nsg7
(dp291
sg9
(I65
I26
tp292
sg11
(dp293
sg13
I00
stRp294
ag2
((dp295
g4
g5
sg6
Nsg7
(dp296
sg9
(I85
I67
tp297
sg11
(dp298
sg13
I00
stRp299
ag2
((dp300
g4
g5
sg6
Nsg7
(dp301
sg9
(I82
I85
tp302
sg11
(dp303
sg13
I00
stRp304
ag2
((dp305
g4
g5
sg6
Nsg7
(dp306
sg9
(I13
I21
tp307
sg11
(dp308
sg13
I00
stRp309
ag2
((dp310
g4
g5
sg6
Nsg7
(dp311
sg9
(I92
I41
tp312
sg11
(dp313
sg13
I00
stRp314
ag2
((dp315
g4
g5
sg6
Nsg7
(dp316
sg9
(I69
I36
tp317
sg11
(dp318
sg13
I00
stRp319
ag2
((dp320
g4
g5
sg6
Nsg7
(dp321
sg9
(I59
I64
tp322
sg11
(dp323
sg13
I00
stRp324
ag2
((dp325
g4
g5
sg6
Nsg7
(dp326
sg9
(I14
I81
tp327
sg11
(dp328
sg13
I00
stRp329
ag2
((dp330
g4
g5
sg6
Nsg7
(dp331
sg9
(I28
I65
tp332
sg11
(dp333
sg13
I00
stRp334
ag2
((dp335
g4
g5
sg6
Nsg7
(dp336
sg9
(I42
I43
tp337
sg11
(dp338
sg13
I00
stRp339
ag2
((dp340
g4
g5
sg6
Nsg7
(dp341
sg9
(I17
I89
tp342
sg11
(dp343
sg13
I00
stRp344
ag2
((dp345
g4
g5
sg6
Nsg7
(dp346
sg9
(I41
I83
tp347
sg11
(dp348
sg13
I00
stRp349
ag2
((dp350
g4
g5
sg6
Nsg7
(dp351
sg9
(I36
I20
tp352
sg11
(dp353
sg13
I00
stRp354
ag2
((dp355
g4
g5
sg6
Nsg7
(dp356
sg9
(I44
I39
tp357
sg11
(dp358
sg13
I00
stRp359
ag2
((dp360
g4
g5
sg6
Nsg7
(dp361
sg9
(I95
I65
tp362
sg11
(dp363
sg13
I00
stRp364
ag2
((dp365
g4
g5
sg6
Nsg7
(dp366
sg9
(I71
I50
tp367
sg11
(dp368
sg13
I00
stRp369
ag2
((dp370
g4
g5
sg6
Nsg7
(dp371
sg9
(I24
I85
tp372
sg11
(dp373
sg13
I00
stRp374
ag2
((dp375
g4
g5
sg6
Nsg7
(dp376
sg9
(I1
I86
tp377
sg11
(dp378
sg13
I00
stRp379
ag2
((dp380
g4
g5
sg6
Nsg7
(dp381
sg9
(I7
I45
tp382
sg11
(dp383
sg13
I00
stRp384
ag2
((dp385
g4
g5
sg6
Nsg7
(dp386
sg9
(I8
I46
tp387
sg11
(dp388
sg13
I00
stRp389
ag2
((dp390
g4
g5
sg6
Nsg7
(dp391
sg9
(I13
I29
tp392
sg11
(dp393
sg13
I00
stRp394
ag2
((dp395
g4
g5
sg6
Nsg7
(dp396
sg9
(I11
I98
tp397
sg11
(dp398
sg13
I00
stRp399
ag2
((dp400
g4
g5
sg6
Nsg7
(dp401
sg9
(I97
I24
tp402
sg11
(dp403
sg13
I00
stRp404
ag2
((dp405
g4
g5
sg6
Nsg7
(dp406
sg9
(I67
I97
tp407
sg11
(dp408
sg13
I00
stRp409
ag2
((dp410
g4
g5
sg6
Nsg7
(dp411
sg9
(I2
I34
tp412
sg11
(dp413
sg13
I00
stRp414
ag2
((dp415
g4
g5
sg6
Nsg7
(dp416
sg9
(I98
I41
tp417
sg11
(dp418
sg13
I00
stRp419
ag2
((dp420
g4
g5
sg6
Nsg7
(dp421
sg9
(I90
I15
tp422
sg11
(dp423
sg13
I00
stRp424
ag2
((dp425
g4
g5
sg6
Nsg7
(dp426
sg9
(I67
I56
tp427
sg11
(dp428
sg13
I00
stRp429
ag2
((dp430
g4
g5
sg6
Nsg7
(dp431
sg9
(I55
I51
tp432
sg11
(dp433
sg13
I00
stRp434
ag2
((dp435
g4
g5
sg6
Nsg7
(dp436
sg9
(I60
I4
tp437
sg11
(dp438
sg13
I00
stRp439
ag2
((dp440
g4
g5
sg6
Nsg7
(dp441
sg9
(I14
I50
tp442
sg11
(dp443
sg13
I00
stRp444
ag2
((dp445
g4
g5
sg6
Nsg7
(dp446
sg9
(I58
I60
tp447
sg11
(dp448
sg13
I00
stRp449
ag2
((dp450
g4
g5
sg6
Nsg7
(dp451
sg9
(I95
I46
tp452
sg11
(dp453
sg13
I00
stRp454
ag2
((dp455
g4
g5
sg6
Nsg7
(dp456
sg9
(I21
I12
tp457
sg11
(dp458
sg13
I00
stRp459
ag2
((dp460
g4
g5
sg6
Nsg7
(dp461
sg9
(I52
I38
tp462
sg11
(dp463
sg13
I00
stRp464
ag2
((dp465
g4
g5
sg6
Nsg7
(dp466
sg9
(I53
I34
tp467
sg11
(dp468
sg13
I00
stRp469
ag2
((dp470
g4
g5
sg6
Nsg7
(dp471
sg9
(I8
I14
tp472
sg11
(dp473
sg13
I00
stRp474
ag2
((dp475
g4
g5
sg6
Nsg7
(dp476
sg9
(I13
I47
tp477
sg11
(dp478
sg13
I00
stRp479
ag2
((dp480
g4
g5
sg6
Nsg7
(dp481
sg9
(I17
I96
tp482
sg11
(dp483
sg13
I00
stRp484
ag2
((dp485
g4
g5
sg6
Nsg7
(dp486
sg9
(I35
I58
tp487
sg11
(dp488
sg13
I00
stRp489
ag2
((dp490
g4
g5
sg6
Nsg7
(dp491
sg9
(I84
I85
tp492
sg11
(dp493
sg13
I00
stRp494
ag2
((dp495
g4
g5
sg6
Nsg7
(dp496
sg9
(I98
I1
tp497
sg11
(dp498
sg13
I00
stRp499
ag2
((dp500
g4
g5
sg6
Nsg7
(dp501
sg9
(I58
I71
tp502
sg11
(dp503
sg13
I00
stRp504
ag2
((dp505
g4
g5
sg6
Nsg7
(dp506
sg9
(I79
I53
tp507
sg11
(dp508
sg13
I00
stRp509
ag2
((dp510
g4
g5
sg6
Nsg7
(dp511
sg9
(I46
I65
tp512
sg11
(dp513
sg13
I00
stRp514
ag2
((dp515
g4
g5
sg6
Nsg7
(dp516
sg9
(I37
I84
tp517
sg11
(dp518
sg13
I00
stRp519
ag2
((dp520
g4
g5
sg6
Nsg7
(dp521
sg9
(I25
I68
tp522
sg11
(dp523
sg13
I00
stRp524
ag2
((dp525
g4
g5
sg6
Nsg7
(dp526
sg9
(I18
I44
tp527
sg11
(dp528
sg13
I00
stRp529
ag2
((dp530
g4
g5
sg6
Nsg7
(dp531
sg9
(I42
I51
tp532
sg11
(dp533
sg13
I00
stRp534
ag2
((dp535
g4
g5
sg6
Nsg7
(dp536
sg9
(I56
I42
tp537
sg11
(dp538
sg13
I00
stRp539
ag2
((dp540
g4
g5
sg6
Nsg7
(dp541
sg9
(I92
I10
tp542
sg11
(dp543
sg13
I00
stRp544
ag2
((dp545
g4
g5
sg6
Nsg7
(dp546
sg9
(I51
I84
tp547
sg11
(dp548
sg13
I00
stRp549
ag2
((dp550
g4
g5
sg6
Nsg7
(dp551
sg9
(I2
I43
tp552
sg11
(dp553
sg13
I00
stRp554
ag2
((dp555
g4
g5
sg6
Nsg7
(dp556
sg9
(I19
I27
tp557
sg11
(dp558
sg13
I00
stRp559
ag2
((dp560
g4
g5
sg6
Nsg7
(dp561
sg9
(I0
I0
tp562
sg11
(dp563
sg13
I00
stRp564
ag2
((dp565
g4
g5
sg6
Nsg7
(dp566
sg9
(I6
I94
tp567
sg11
(dp568
sg13
I00
stRp569
ag2
((dp570
g4
g5
sg6
Nsg7
(dp571
sg9
(I27
I83
tp572
sg11
(dp573
sg13
I00
stRp574
ag2
((dp575
g4
g5
sg6
Nsg7
(dp576
sg9
(I100
I100
tp577
sg11
(dp578
sg13
I00
stRp579
ag2
((dp580
g4
g5
sg6
Nsg7
(dp581
sg9
(I37
I60
tp582
sg11
(dp583
sg13
I00
stRp584
ag2
((dp585
g4
g5
sg6
Nsg7
(dp586
sg9
(I56
I43
tp587
sg11
(dp588
sg13
I00
stRp589
ag2
((dp590
g4
g5
sg6
Nsg7
(dp591
sg9
(I49
I74
tp592
sg11
(dp593
sg13
I00
stRp594
ag2
((dp595
g4
g5
sg6
Nsg7
(dp596
sg9
(I94
I74
tp597
sg11
(dp598
sg13
I00
stRp599
ag2
((dp600
g4
g5
sg6
Nsg7
(dp601
sg9
(I45
I64
tp602
sg11
(dp603
sg13
I00
stRp604
ag2
((dp605
g4
g5
sg6
Nsg7
(dp606
sg9
(I69
I63
tp607
sg11
(dp608
sg13
I00
stRp609
ag2
((dp610
g4
g5
sg6
Nsg7
(dp611
sg9
(I74
I75
tp612
sg11
(dp613
sg13
I00
stRp614
ag2
((dp615
g4
g5
sg6
Nsg7
(dp616
sg9
(I62
I93
tp617
sg11
(dp618
sg13
I00
stRp619
ag2
((dp620
g4
g5
sg6
Nsg7
(dp621
sg9
(I37
I81
tp622
sg11
(dp623
sg13
I00
stRp624
ag2
((dp625
g4
g5
sg6
Nsg7
(dp626
sg9
(I51
I72
tp627
sg11
(dp628
sg13
I00
stRp629
ag2
((dp630
g4
g5
sg6
Nsg7
(dp631
sg9
(I7
I15
tp632
sg11
(dp633
sg13
I00
stRp634
ag2
((dp635
g4
g5
sg6
Nsg7
(dp636
sg9
(I48
I80
tp637
sg11
(dp638
sg13
I00
stRp639
ag2
((dp640
g4
g5
sg6
Nsg7
(dp641
sg9
(I26
I59
tp642
sg11
(dp643
sg13
I00
stRp644
ag2
((dp645
g4
g5
sg6
Nsg7
(dp646
sg9
(I7
I83
tp647
sg11
(dp648
sg13
I00
stRp649
ag2
((dp650
g4
g5
sg6
Nsg7
(dp651
sg9
(I97
I70
tp652
sg11
(dp653
sg13
I00
stRp654
ag2
((dp655
g4
g5
sg6
Nsg7
(dp656
sg9
(I93
I40
tp657
sg11
(dp658
sg13
I00
stRp659
ag2
((dp660
g4
g5
sg6
Nsg7
(dp661
sg9
(I4
I40
tp662
sg11
(dp663
sg13
I00
stRp664
ag2
((dp665
g4
g5
sg6
Nsg7
(dp666
sg9
(I43
I95
tp667
sg11
(dp668
sg13
I00
stRp669
ag2
((dp670
g4
g5
sg6
Nsg7
(dp671
sg9
(I42
I33
tp672
sg11
(dp673
sg13
I00
stRp674
ag2
((dp675
g4
g5
sg6
Nsg7
(dp676
sg9
(I69
I86
tp677
sg11
(dp678
sg13
I00
stRp679
ag2
((dp680
g4
g5
sg6
Nsg7
(dp681
sg9
(I99
I64
tp682
sg11
(dp683
sg13
I00
stRp684
ag2
((dp685
g4
g5
sg6
Nsg7
(dp686
sg9
(I76
I17
tp687
sg11
(dp688
sg13
I00
stRp689
ag2
((dp690
g4
g5
sg6
Nsg7
(dp691
sg9
(I5
I88
tp692
sg11
(dp693
sg13
I00
stRp694
ag2
((dp695
g4
g5
sg6
Nsg7
(dp696
sg9
(I72
I50
tp697
sg11
(dp698
sg13
I00
stRp699
ag2
((dp700
g4
g5
sg6
Nsg7
(dp701
sg9
(I2
I97
tp702
sg11
(dp703
sg13
I00
stRp704
ag2
((dp705
g4
g5
sg6
Nsg7
(dp706
sg9
(I59
I100
tp707
sg11
(dp708
sg13
I00
stRp709
ag2
((dp710
g4
g5
sg6
Nsg7
(dp711
sg9
(I38
I64
tp712
sg11
(dp713
sg13
I00
stRp714
ag2
((dp715
g4
g5
sg6
Nsg7
(dp716
sg9
(I25
I97
tp717
sg11
(dp718
sg13
I00
stRp719
ag2
((dp720
g4
g5
sg6
Nsg7
(dp721
sg9
(I31
I48
tp722
sg11
(dp723
sg13
I00
stRp724
ag2
((dp725
g4
g5
sg6
Nsg7
(dp726
sg9
(I74
I28
tp727
sg11
(dp728
sg13
I00
stRp729
ag2
((dp730
g4
g5
sg6
Nsg7
(dp731
sg9
(I74
I17
tp732
sg11
(dp733
sg13
I00
stRp734
ag2
((dp735
g4
g5
sg6
Nsg7
(dp736
sg9
(I15
I30
tp737
sg11
(dp738
sg13
I00
stRp739
ag2
((dp740
g4
g5
sg6
Nsg7
(dp741
sg9
(I90
I2
tp742
sg11
(dp743
sg13
I00
stRp744
ag2
((dp745
g4
g5
sg6
Nsg7
(dp746
sg9
(I50
I34
tp747
sg11
(dp748
sg13
I00
stRp749
ag2
((dp750
g4
g5
sg6
Nsg7
(dp751
sg9
(I95
I52
tp752
sg11
(dp753
sg13
I00
stRp754
ag2
((dp755
g4
g5
sg6
Nsg7
(dp756
sg9
(I9
I84
tp757
sg11
(dp758
sg13
I00
stRp759
ag2
((dp760
g4
g5
sg6
Nsg7
(dp761
sg9
(I28
I91
tp762
sg11
(dp763
sg13
I00
stRp764
ag2
((dp765
g4
g5
sg6
Nsg7
(dp766
sg9
(I28
I74
tp767
sg11
(dp768
sg13
I00
stRp769
ag2
((dp770
g4
g5
sg6
Nsg7
(dp771
sg9
(I35
I73
tp772
sg11
(dp773
sg13
I00
stRp774
ag2
((dp775
g4
g5
sg6
Nsg7
(dp776
sg9
(I9
I51
tp777
sg11
(dp778
sg13
I00
stRp779
ag2
((dp780
g4
g5
sg6
Nsg7
(dp781
sg9
(I53
I43
tp782
sg11
(dp783
sg13
I00
stRp784
ag2
((dp785
g4
g5
sg6
Nsg7
(dp786
sg9
(I23
I80
tp787
sg11
(dp788
sg13
I00
stRp789
ag2
((dp790
g4
g5
sg6
Nsg7
(dp791
sg9
(I79
I5
tp792
sg11
(dp793
sg13
I00
stRp794
ag2
((dp795
g4
g5
sg6
Nsg7
(dp796
sg9
(I80
I86
tp797
sg11
(dp798
sg13
I00
stRp799
ag2
((dp800
g4
g5
sg6
Nsg7
(dp801
sg9
(I8
I12
tp802
sg11
(dp803
sg13
I00
stRp804
ag2
((dp805
g4
g5
sg6
Nsg7
(dp806
sg9
(I89
I77
tp807
sg11
(dp808
sg13
I00
stRp809
ag2
((dp810
g4
g5
sg6
Nsg7
(dp811
sg9
(I10
I18
tp812
sg11
(dp813
sg13
I00
stRp814
ag2
((dp815
g4
g5
sg6
Nsg7
(dp816
sg9
(I1
I53
tp817
sg11
(dp818
sg13
I00
stRp819
ag2
((dp820
g4
g5
sg6
Nsg7
(dp821
sg9
(I81
I8
tp822
sg11
(dp823
sg13
I00
stRp824
ag2
((dp825
g4
g5
sg6
Nsg7
(dp826
sg9
(I73
I17
tp827
sg11
(dp828
sg13
I00
stRp829
ag2
((dp830
g4
g5
sg6
Nsg7
(dp831
sg9
(I85
I0
tp832
sg11
(dp833
sg13
I00
stRp834
ag2
((dp835
g4
g5
sg6
Nsg7
(dp836
sg9
(I51
I26
tp837
sg11
(dp838
sg13
I00
stRp839
ag2
((dp840
g4
g5
sg6
Nsg7
(dp841
sg9
(I70
I51
tp842
sg11
(dp843
sg13
I00
stRp844
ag2
((dp845
g4
g5
sg6
Nsg7
(dp846
sg9
(I40
I91
tp847
sg11
(dp848
sg13
I00
stRp849
ag2
((dp850
g4
g5
sg6
Nsg7
(dp851
sg9
(I26
I85
tp852
sg11
(dp853
sg13
I00
stRp854
ag2
((dp855
g4
g5
sg6
Nsg7
(dp856
sg9
(I40
I12
tp857
sg11
(dp858
sg13
I00
stRp859
ag2
((dp860
g4
g5
sg6
Nsg7
(dp861
sg9
(I46
I16
tp862
sg11
(dp863
sg13
I00
stRp864
ag2
((dp865
g4
g5
sg6
Nsg7
(dp866
sg9
(I22
I16
tp867
sg11
(dp868
sg13
I00
stRp869
ag2
((dp870
g4
g5
sg6
Nsg7
(dp871
sg9
(I87
I67
tp872
sg11
(dp873
sg13
I00
stRp874
ag2
((dp875
g4
g5
sg6
Nsg7
(dp876
sg9
(I55
I46
tp877
sg11
(dp878
sg13
I00
stRp879
ag2
((dp880
g4
g5
sg6
Nsg7
(dp881
sg9
(I70
I28
tp882
sg11
(dp883
sg13
I00
stRp884
ag2
((dp885
g4
g5
sg6
Nsg7
(dp886
sg9
(I80
I54
tp887
sg11
(dp888
sg13
I00
stRp889
ag2
((dp890
g4
g5
sg6
Nsg7
(dp891
sg9
(I43
I48
tp892
sg11
(dp893
sg13
I00
stRp894
ag2
((dp895
g4
g5
sg6
Nsg7
(dp896
sg9
(I6
I10
tp897
sg11
(dp898
sg13
I00
stRp899
ag2
((dp900
g4
g5
sg6
Nsg7
(dp901
sg9
(I50
I72
tp902
sg11
(dp903
sg13
I00
stRp904
ag2
((dp905
g4
g5
sg6
Nsg7
(dp906
sg9
(I86
I12
tp907
sg11
(dp908
sg13
I00
stRp909
ag2
((dp910
g4
g5
sg6
Nsg7
(dp911
sg9
(I15
I20
tp912
sg11
(dp913
sg13
I00
stRp914
ag2
((dp915
g4
g5
sg6
Nsg7
(dp916
sg9
(I53
I93
tp917
sg11
(dp918
sg13
I00
stRp919
ag2
((dp920
g4
g5
sg6
Nsg7
(dp921
sg9
(I0
I4
tp922
sg11
(dp923
sg13
I00
stRp924
ag2
((dp925
g4
g5
sg6
Nsg7
(dp926
sg9
(I7
I71
tp927
sg11
(dp928
sg13
I00
stRp929
ag2
((dp930
g4
g5
sg6
Nsg7
(dp931
sg9
(I29
I24
tp932
sg11
(dp933
sg13
I00
stRp934
ag2
((dp935
g4
g5
sg6
Nsg7
(dp936
sg9
(I50
I63
tp937
sg11
(dp938
sg13
I00
stRp939
ag2
((dp940
g4
g5
sg6
Nsg7
(dp941
sg9
(I85
I28
tp942
sg11
(dp943
sg13
I00
stRp944
ag2
((dp945
g4
g5
sg6
Nsg7
(dp946
sg9
(I29
I97
tp947
sg11
(dp948
sg13
I00
stRp949
ag2
((dp950
g4
g5
sg6
Nsg7
(dp951
sg9
(I67
I2
tp952
sg11
(dp953
sg13
I00
stRp954
ag2
((dp955
g4
g5
sg6
Nsg7
(dp956
sg9
(I80
I27
tp957
sg11
(dp958
sg13
I00
stRp959
ag2
((dp960
g4
g5
sg6
Nsg7
(dp961
sg9
(I31
I51
tp962
sg11
(dp963
sg13
I00
stRp964
ag2
((dp965
g4
g5
sg6
Nsg7
(dp966
sg9
(I79
I31
tp967
sg11
(dp968
sg13
I00
stRp969
ag2
((dp970
g4
g5
sg6
Nsg7
(dp971
sg9
(I14
I18
tp972
sg11
(dp973
sg13
I00
stRp974
ag2
((dp975
g4
g5
sg6
Nsg7
(dp976
sg9
(I96
I10
tp977
sg11
(dp978
sg13
I00
stRp979
ag2
((dp980
g4
g5
sg6
Nsg7
(dp981
sg9
(I36
I44
tp982
sg11
(dp983
sg13
I00
stRp984
ag2
((dp985
g4
g5
sg6
Nsg7
(dp986
sg9
(I61
I92
tp987
sg11
(dp988
sg13
I00
stRp989
ag2
((dp990
g4
g5
sg6
Nsg7
(dp991
sg9
(I33
I89
tp992
sg11
(dp993
sg13
I00
stRp994
ag2
((dp995
g4
g5
sg6
Nsg7
(dp996
sg9
(I7
I16
tp997
sg11
(dp998
sg13
I00
stRp999
ag2
((dp1000
g4
g5
sg6
Nsg7
(dp1001
sg9
(I78
I71
tp1002
sg11
(dp1003
sg13
I00
stRp1004
ag2
((dp1005
g4
g5
sg6
Nsg7
(dp1006
sg9
(I23
I54
tp1007
sg11
(dp1008
sg13
I00
stRp1009
ag2
((dp1010
g4
g5
sg6
Nsg7
(dp1011
sg9
(I98
I41
tp1012
sg11
(dp1013
sg13
I00
stRp1014
ag2
((dp1015
g4
g5
sg6
Nsg7
(dp1016
sg9
(I5
I43
tp1017
sg11
(dp1018
sg13
I00
stRp1019
ag2
((dp1020
g4
g5
sg6
Nsg7
(dp1021
sg9
(I76
I61
tp1022
sg11
(dp1023
sg13
I00
stRp1024
ag2
((dp1025
g4
g5
sg6
Nsg7
(dp1026
sg9
(I44
I56
tp1027
sg11
(dp1028
sg13
I00
stRp1029
ag2
((dp1030
g4
g5
sg6
Nsg7
(dp1031
sg9
(I9
I81
tp1032
sg11
(dp1033
sg13
I00
stRp1034
ag2
((dp1035
g4
g5
sg6
Nsg7
(dp1036
sg9
(I36
I85
tp1037
sg11
(dp1038
sg13
I00
stRp1039
ag2
((dp1040
g4
g5
sg6
Nsg7
(dp1041
sg9
(I88
I3
tp1042
sg11
(dp1043
sg13
I00
stRp1044
ag2
((dp1045
g4
g5
sg6
Nsg7
(dp1046
sg9
(I84
I67
tp1047
sg11
(dp1048
sg13
I00
stRp1049
ag2
((dp1050
g4
g5
sg6
Nsg7
(dp1051
sg9
(I84
I83
tp1052
sg11
(dp1053
sg13
I00
stRp1054
ag2
((dp1055
g4
g5
sg6
Nsg7
(dp1056
sg9
(I3
I93
tp1057
sg11
(dp1058
sg13
I00
stRp1059
ag2
((dp1060
g4
g5
sg6
Nsg7
(dp1061
sg9
(I21
I97
tp1062
sg11
(dp1063
sg13
I00
stRp1064
ag2
((dp1065
g4
g5
sg6
Nsg7
(dp1066
sg9
(I98
I69
tp1067
sg11
(dp1068
sg13
I00
stRp1069
ag2
((dp1070
g4
g5
sg6
Nsg7
(dp1071
sg9
(I3
I87
tp1072
sg11
(dp1073
sg13
I00
stRp1074
ag2
((dp1075
g4
g5
sg6
Nsg7
(dp1076
sg9
(I54
I88
tp1077
sg11
(dp1078
sg13
I00
stRp1079
ag2
((dp1080
g4
g5
sg6
Nsg7
(dp1081
sg9
(I41
I1
tp1082
sg11
(dp1083
sg13
I00
stRp1084
ag2
((dp1085
g4
g5
sg6
Nsg7
(dp1086
sg9
(I46
I94
tp1087
sg11
(dp1088
sg13
I00
stRp1089
ag2
((dp1090
g4
g5
sg6
Nsg7
(dp1091
sg9
(I81
I23
tp1092
sg11
(dp1093
sg13
I00
stRp1094
ag2
((dp1095
g4
g5
sg6
Nsg7
(dp1096
sg9
(I54
I97
tp1097
sg11
(dp1098
sg13
I00
stRp1099
ag2
((dp1100
g4
g5
sg6
Nsg7
(dp1101
sg9
(I2
I46
tp1102
sg11
(dp1103
sg13
I00
stRp1104
ag2
((dp1105
g4
g5
sg6
Nsg7
(dp1106
sg9
(I44
I66
tp1107
sg11
(dp1108
sg13
I00
stRp1109
ag2
((dp1110
g4
g5
sg6
Nsg7
(dp1111
sg9
(I77
I10
tp1112
sg11
(dp1113
sg13
I00
stRp1114
ag2
((dp1115
g4
g5
sg6
Nsg7
(dp1116
sg9
(I0
I1
tp1117
sg11
(dp1118
sg13
I00
stRp1119
ag2
((dp1120
g4
g5
sg6
Nsg7
(dp1121
sg9
(I74
I49
tp1122
sg11
(dp1123
sg13
I00
stRp1124
ag2
((dp1125
g4
g5
sg6
Nsg7
(dp1126
sg9
(I73
I88
tp1127
sg11
(dp1128
sg13
I00
stRp1129
ag2
((dp1130
g4
g5
sg6
Nsg7
(dp1131
sg9
(I100
I92
tp1132
sg11
(dp1133
sg13
I00
stRp1134
ag2
((dp1135
g4
g5
sg6
Nsg7
(dp1136
sg9
(I40
I34
tp1137
sg11
(dp1138
sg13
I00
stRp1139
ag2
((dp1140
g4
g5
sg6
Nsg7
(dp1141
sg9
(I19
I58
tp1142
sg11
(dp1143
sg13
I00
stRp1144
ag2
((dp1145
g4
g5
sg6
Nsg7
(dp1146
sg9
(I39
I95
tp1147
sg11
(dp1148
sg13
I00
stRp1149
ag2
((dp1150
g4
g5
sg6
Nsg7
(dp1151
sg9
(I17
I59
tp1152
sg11
(dp1153
sg13
I00
stRp1154
ag2
((dp1155
g4
g5
sg6
Nsg7
(dp1156
sg9
(I19
I100
tp1157
sg11
(dp1158
sg13
I00
stRp1159
ag2
((dp1160
g4
g5
sg6
Nsg7
(dp1161
sg9
(I98
I33
tp1162
sg11
(dp1163
sg13
I00
stRp1164
ag2
((dp1165
g4
g5
sg6
Nsg7
(dp1166
sg9
(I91
I26
tp1167
sg11
(dp1168
sg13
I00
stRp1169
ag2
((dp1170
g4
g5
sg6
Nsg7
(dp1171
sg9
(I32
I66
tp1172
sg11
(dp1173
sg13
I00
stRp1174
ag2
((dp1175
g4
g5
sg6
Nsg7
(dp1176
sg9
(I39
I90
tp1177
sg11
(dp1178
sg13
I00
stRp1179
ag2
((dp1180
g4
g5
sg6
Nsg7
(dp1181
sg9
(I86
I42
tp1182
sg11
(dp1183
sg13
I00
stRp1184
ag2
((dp1185
g4
g5
sg6
Nsg7
(dp1186
sg9
(I32
I29
tp1187
sg11
(dp1188
sg13
I00
stRp1189
ag2
((dp1190
g4
g5
sg6
Nsg7
(dp1191
sg9
(I45
I78
tp1192
sg11
(dp1193
sg13
I00
stRp1194
ag2
((dp1195
g4
g5
sg6
Nsg7
(dp1196
sg9
(I94
I48
tp1197
sg11
(dp1198
sg13
I00
stRp1199
ag2
((dp1200
g4
g5
sg6
Nsg7
(dp1201
sg9
(I40
I54
tp1202
sg11
(dp1203
sg13
I00
stRp1204
ag2
((dp1205
g4
g5
sg6
Nsg7
(dp1206
sg9
(I18
I6
tp1207
sg11
(dp1208
sg13
I00
stRp1209
ag2
((dp1210
g4
g5
sg6
Nsg7
(dp1211
sg9
(I84
I36
tp1212
sg11
(dp1213
sg13
I00
stRp1214
ag2
((dp1215
g4
g5
sg6
Nsg7
(dp1216
sg9
(I85
I40
tp1217
sg11
(dp1218
sg13
I00
stRp1219
ag2
((dp1220
g4
g5
sg6
Nsg7
(dp1221
sg9
(I99
I91
tp1222
sg11
(dp1223
sg13
I00
stRp1224
ag2
((dp1225
g4
g5
sg6
Nsg7
(dp1226
sg9
(I62
I52
tp1227
sg11
(dp1228
sg13
I00
stRp1229
ag2
((dp1230
g4
g5
sg6
Nsg7
(dp1231
sg9
(I1
I22
tp1232
sg11
(dp1233
sg13
I00
stRp1234
ag2
((dp1235
g4
g5
sg6
Nsg7
(dp1236
sg9
(I99
I2
tp1237
sg11
(dp1238
sg13
I00
stRp1239
ag2
((dp1240
g4
g5
sg6
Nsg7
(dp1241
sg9
(I45
I44
tp1242
sg11
(dp1243
sg13
I00
stRp1244
ag2
((dp1245
g4
g5
sg6
Nsg7
(dp1246
sg9
(I7
I62
tp1247
sg11
(dp1248
sg13
I00
stRp1249
ag2
((dp1250
g4
g5
sg6
Nsg7
(dp1251
sg9
(I55
I59
tp1252
sg11
(dp1253
sg13
I00
stRp1254
ag2
((dp1255
g4
g5
sg6
Nsg7
(dp1256
sg9
(I92
I52
tp1257
sg11
(dp1258
sg13
I00
stRp1259
ag2
((dp1260
g4
g5
sg6
Nsg7
(dp1261
sg9
(I99
I7
tp1262
sg11
(dp1263
sg13
I00
stRp1264
ag2
((dp1265
g4
g5
sg6
Nsg7
(dp1266
sg9
(I35
I27
tp1267
sg11
(dp1268
sg13
I00
stRp1269
ag2
((dp1270
g4
g5
sg6
Nsg7
(dp1271
sg9
(I82
I53
tp1272
sg11
(dp1273
sg13
I00
stRp1274
ag2
((dp1275
g4
g5
sg6
Nsg7
(dp1276
sg9
(I77
I75
tp1277
sg11
(dp1278
sg13
I00
stRp1279
ag2
((dp1280
g4
g5
sg6
Nsg7
(dp1281
sg9
(I72
I16
tp1282
sg11
(dp1283
sg13
I00
stRp1284
ag2
((dp1285
g4
g5
sg6
Nsg7
(dp1286
sg9
(I6
I96
tp1287
sg11
(dp1288
sg13
I00
stRp1289
ag2
((dp1290
g4
g5
sg6
Nsg7
(dp1291
sg9
(I36
I31
tp1292
sg11
(dp1293
sg13
I00
stRp1294
ag2
((dp1295
g4
g5
sg6
Nsg7
(dp1296
sg9
(I63
I18
tp1297
sg11
(dp1298
sg13
I00
stRp1299
ag2
((dp1300
g4
g5
sg6
Nsg7
(dp1301
sg9
(I86
I93
tp1302
sg11
(dp1303
sg13
I00
stRp1304
ag2
((dp1305
g4
g5
sg6
Nsg7
(dp1306
sg9
(I83
I14
tp1307
sg11
(dp1308
sg13
I00
stRp1309
ag2
((dp1310
g4
g5
sg6
Nsg7
(dp1311
sg9
(I42
I95
tp1312
sg11
(dp1313
sg13
I00
stRp1314
ag2
((dp1315
g4
g5
sg6
Nsg7
(dp1316
sg9
(I5
I87
tp1317
sg11
(dp1318
sg13
I00
stRp1319
ag2
((dp1320
g4
g5
sg6
Nsg7
(dp1321
sg9
(I63
I71
tp1322
sg11
(dp1323
sg13
I00
stRp1324
ag2
((dp1325
g4
g5
sg6
Nsg7
(dp1326
sg9
(I50
I76
tp1327
sg11
(dp1328
sg13
I00
stRp1329
ag2
((dp1330
g4
g5
sg6
Nsg7
(dp1331
sg9
(I19
I57
tp1332
sg11
(dp1333
sg13
I00
stRp1334
ag2
((dp1335
g4
g5
sg6
Nsg7
(dp1336
sg9
(I96
I65
tp1337
sg11
(dp1338
sg13
I00
stRp1339
ag2
((dp1340
g4
g5
sg6
Nsg7
(dp1341
sg9
(I33
I58
tp1342
sg11
(dp1343
sg13
I00
stRp1344
ag2
((dp1345
g4
g5
sg6
Nsg7
(dp1346
sg9
(I29
I90
tp1347
sg11
(dp1348
sg13
I00
stRp1349
ag2
((dp1350
g4
g5
sg6
Nsg7
(dp1351
sg9
(I94
I11
tp1352
sg11
(dp1353
sg13
I00
stRp1354
ag2
((dp1355
g4
g5
sg6
Nsg7
(dp1356
sg9
(I46
I73
tp1357
sg11
(dp1358
sg13
I00
stRp1359
ag2
((dp1360
g4
g5
sg6
Nsg7
(dp1361
sg9
(I78
I30
tp1362
sg11
(dp1363
sg13
I00
stRp1364
ag2
((dp1365
g4
g5
sg6
Nsg7
(dp1366
sg9
(I24
I60
tp1367
sg11
(dp1368
sg13
I00
stRp1369
ag2
((dp1370
g4
g5
sg6
Nsg7
(dp1371
sg9
(I59
I5
tp1372
sg11
(dp1373
sg13
I00
stRp1374
ag2
((dp1375
g4
g5
sg6
Nsg7
(dp1376
sg9
(I66
I100
tp1377
sg11
(dp1378
sg13
I00
stRp1379
ag2
((dp1380
g4
g5
sg6
Nsg7
(dp1381
sg9
(I60
I49
tp1382
sg11
(dp1383
sg13
I00
stRp1384
ag2
((dp1385
g4
g5
sg6
Nsg7
(dp1386
sg9
(I60
I97
tp1387
sg11
(dp1388
sg13
I00
stRp1389
ag2
((dp1390
g4
g5
sg6
Nsg7
(dp1391
sg9
(I98
I28
tp1392
sg11
(dp1393
sg13
I00
stRp1394
ag2
((dp1395
g4
g5
sg6
Nsg7
(dp1396
sg9
(I80
I59
tp1397
sg11
(dp1398
sg13
I00
stRp1399
ag2
((dp1400
g4
g5
sg6
Nsg7
(dp1401
sg9
(I87
I74
tp1402
sg11
(dp1403
sg13
I00
stRp1404
ag2
((dp1405
g4
g5
sg6
Nsg7
(dp1406
sg9
(I65
I37
tp1407
sg11
(dp1408
sg13
I00
stRp1409
ag2
((dp1410
g4
g5
sg6
Nsg7
(dp1411
sg9
(I49
I52
tp1412
sg11
(dp1413
sg13
I00
stRp1414
ag2
((dp1415
g4
g5
sg6
Nsg7
(dp1416
sg9
(I38
I92
tp1417
sg11
(dp1418
sg13
I00
stRp1419
ag2
((dp1420
g4
g5
sg6
Nsg7
(dp1421
sg9
(I61
I2
tp1422
sg11
(dp1423
sg13
I00
stRp1424
ag2
((dp1425
g4
g5
sg6
Nsg7
(dp1426
sg9
(I80
I86
tp1427
sg11
(dp1428
sg13
I00
stRp1429
ag2
((dp1430
g4
g5
sg6
Nsg7
(dp1431
sg9
(I59
I34
tp1432
sg11
(dp1433
sg13
I00
stRp1434
ag2
((dp1435
g4
g5
sg6
Nsg7
(dp1436
sg9
(I7
I0
tp1437
sg11
(dp1438
sg13
I00
stRp1439
ag2
((dp1440
g4
g5
sg6
Nsg7
(dp1441
sg9
(I24
I89
tp1442
sg11
(dp1443
sg13
I00
stRp1444
ag2
((dp1445
g4
g5
sg6
Nsg7
(dp1446
sg9
(I100
I44
tp1447
sg11
(dp1448
sg13
I00
stRp1449
ag2
((dp1450
g4
g5
sg6
Nsg7
(dp1451
sg9
(I89
I26
tp1452
sg11
(dp1453
sg13
I00
stRp1454
ag2
((dp1455
g4
g5
sg6
Nsg7
(dp1456
sg9
(I53
I66
tp1457
sg11
(dp1458
sg13
I00
stRp1459
ag2
((dp1460
g4
g5
sg6
Nsg7
(dp1461
sg9
(I31
I71
tp1462
sg11
(dp1463
sg13
I00
stRp1464
ag2
((dp1465
g4
g5
sg6
Nsg7
(dp1466
sg9
(I33
I26
tp1467
sg11
(dp1468
sg13
I00
stRp1469
ag2
((dp1470
g4
g5
sg6
Nsg7
(dp1471
sg9
(I93
I76
tp1472
sg11
(dp1473
sg13
I00
stRp1474
ag2
((dp1475
g4
g5
sg6
Nsg7
(dp1476
sg9
(I4
I48
tp1477
sg11
(dp1478
sg13
I00
stRp1479
ag2
((dp1480
g4
g5
sg6
Nsg7
(dp1481
sg9
(I66
I57
tp1482
sg11
(dp1483
sg13
I00
stRp1484
ag2
((dp1485
g4
g5
sg6
Nsg7
(dp1486
sg9
(I93
I33
tp1487
sg11
(dp1488
sg13
I00
stRp1489
ag2
((dp1490
g4
g5
sg6
Nsg7
(dp1491
sg9
(I37
I54
tp1492
sg11
(dp1493
sg13
I00
stRp1494
ag2
((dp1495
g4
g5
sg6
Nsg7
(dp1496
sg9
(I55
I78
tp1497
sg11
(dp1498
sg13
I00
stRp1499
ag2
((dp1500
g4
g5
sg6
Nsg7
(dp1501
sg9
(I15
I92
tp1502
sg11
(dp1503
sg13
I00
stRp1504
ag2
((dp1505
g4
g5
sg6
Nsg7
(dp1506
sg9
(I22
I49
tp1507
sg11
(dp1508
sg13
I00
stRp1509
a.